target datalayout = "e-m:e-p270:32:32-p271:32:32-p272:64:64-i64:64-i128:128-f80:128-n8:16:32:64-S128"
target triple = "x86_64-pc-linux-gnu"

%struct.HWLM = type { i8, i64, %union.AccelAux, %union.AccelAux }
%union.AccelAux = type { %struct.anon.5 }
%struct.anon.5 = type { i8, i8, <2 x i64>, <2 x i64>, <2 x i64>, <2 x i64> }

; Function Attrs: mustprogress uwtable
define hidden void @_ZN3ue217buildForwardAccelEP4HWLMRKSt6vectorINS_11AccelStringESaIS3_EEy(ptr noundef %0, ptr noundef nonnull align 8 dereferenceable(24) %1, i64 noundef %2) #0 {
  %4 = alloca ptr, align 8
  %5 = alloca ptr, align 8
  %6 = alloca i64, align 8
  store ptr %0, ptr %4, align 8
  store ptr %1, ptr %5, align 8
  store i64 %2, ptr %6, align 8
  %7 = load ptr, ptr %5, align 8
  %8 = load i64, ptr %6, align 8
  %9 = load ptr, ptr %4, align 8
  %10 = getelementptr inbounds nuw %struct.HWLM, ptr %9, i32 0, i32 2
  call void @_ZN3ue2L22findForwardAccelSchemeERKSt6vectorINS_11AccelStringESaIS1_EEyP8AccelAux(ptr noundef nonnull align 8 dereferenceable(24) %7, i64 noundef %8, ptr noundef %10)
  %11 = load ptr, ptr %5, align 8
  %12 = load ptr, ptr %4, align 8
  %13 = getelementptr inbounds nuw %struct.HWLM, ptr %12, i32 0, i32 3
  call void @_ZN3ue2L22findForwardAccelSchemeERKSt6vectorINS_11AccelStringESaIS1_EEyP8AccelAux(ptr noundef nonnull align 8 dereferenceable(24) %11, i64 noundef -1, ptr noundef %13)
  %14 = load i64, ptr %6, align 8
  %15 = load ptr, ptr %4, align 8
  %16 = getelementptr inbounds nuw %struct.HWLM, ptr %15, i32 0, i32 1
  store i64 %14, ptr %16, align 8
  ret void
}