; Function Attrs: mustprogress uwtable
define hidden void @_ZN3ue217buildForwardAccelEP4HWLMRKSt6vectorINS_11AccelStringESaIS3_EEy(ptr noundef %0, ptr noundef nonnull readonly align 8 captures(none) dereferenceable(24) %1, i64 noundef %2) local_unnamed_addr #0 {
  %4 = getelementptr inbounds nuw i8, ptr %0, i64 16
  tail call fastcc void @_ZN3ue2L22findForwardAccelSchemeERKSt6vectorINS_11AccelStringESaIS1_EEyP8AccelAux(ptr noundef nonnull align 8 dereferenceable(24) %1, i64 noundef %2, ptr noundef nonnull %4)
  %5 = getelementptr inbounds nuw i8, ptr %0, i64 96
  tail call fastcc void @_ZN3ue2L22findForwardAccelSchemeERKSt6vectorINS_11AccelStringESaIS1_EEyP8AccelAux(ptr noundef nonnull align 8 dereferenceable(24) %1, i64 noundef -1, ptr noundef nonnull %5)
  %6 = getelementptr inbounds nuw i8, ptr %0, i64 8
  store i64 %2, ptr %6, align 8
  ret void
}